target datalayout = "e-m:e-p270:32:32-p271:32:32-p272:64:64-i64:64-i128:128-f80:128-n8:16:32:64-S128"
target triple = "x86_64-pc-linux-gnu"

%struct.FFHWBaseEncodeContext = type { ptr, ptr, ptr, i32, i32, i32, i32, i32, i32, ptr, ptr, ptr, ptr, ptr, ptr, ptr, ptr, [2 x ptr], i32, i64, i64, i64, i64, i64, i64, i64, [112 x i64], i32, i32, i32, i32, i32, i32, i32, i32, i32, i32, i32, i32, i32, i32, i32, i32, ptr, i32, ptr, i32, ptr }
%struct.AVHWFramesConstraints = type { ptr, ptr, i32, i32, i32, i32 }
%struct.AVHWFramesContext = type { ptr, ptr, ptr, ptr, ptr, ptr, ptr, i32, i32, i32, i32, i32 }

@.str.12 = private unnamed_addr constant [45 x i8] c"Using %s as format of reconstructed frames.\0A\00", align 1
@.str.13 = private unnamed_addr constant [91 x i8] c"Hardware does not support encoding at size %dx%d (constraints: width %d-%d height %d-%d).\0A\00", align 1

; Function Attrs: nounwind uwtable
define i32 @ff_hw_base_get_recon_format(ptr noundef %0, ptr noundef %1, ptr noundef %2) #0 {
  %4 = alloca ptr, align 8
  %5 = alloca ptr, align 8
  %6 = alloca ptr, align 8
  %7 = alloca ptr, align 8
  %8 = alloca i32, align 4
  %9 = alloca i32, align 4
  %10 = alloca i32, align 4
  store ptr %0, ptr %4, align 8, !tbaa !4
  store ptr %1, ptr %5, align 8, !tbaa !140
  store ptr %2, ptr %6, align 8, !tbaa !140
  call void @llvm.lifetime.start.p0(i64 8, ptr %7) #7
  store ptr null, ptr %7, align 8, !tbaa !141
  call void @llvm.lifetime.start.p0(i64 4, ptr %8) #7
  call void @llvm.lifetime.start.p0(i64 4, ptr %9) #7
  call void @llvm.lifetime.start.p0(i64 4, ptr %10) #7
  %11 = load ptr, ptr %4, align 8, !tbaa !4
  %12 = getelementptr inbounds nuw %struct.FFHWBaseEncodeContext, ptr %11, i32 0, i32 9
  %13 = load ptr, ptr %12, align 8, !tbaa !143
  %14 = load ptr, ptr %5, align 8, !tbaa !140
  %15 = call ptr @av_hwdevice_get_hwframe_constraints(ptr noundef %13, ptr noundef %14)
  store ptr %15, ptr %7, align 8, !tbaa !141
  %16 = load ptr, ptr %7, align 8, !tbaa !141
  %17 = icmp ne ptr %16, null
  br i1 %17, label %19, label %18

18:                                               ; preds = %3
  store i32 -12, ptr %9, align 4, !tbaa !15
  br label %136

19:                                               ; preds = %3
  store i32 -1, ptr %8, align 4, !tbaa !15
  %20 = load ptr, ptr %7, align 8, !tbaa !141
  %21 = getelementptr inbounds nuw %struct.AVHWFramesConstraints, ptr %20, i32 0, i32 1
  %22 = load ptr, ptr %21, align 8, !tbaa !144
  %23 = icmp ne ptr %22, null
  br i1 %23, label %24, label %68

24:                                               ; preds = %19
  store i32 0, ptr %10, align 4, !tbaa !15
  br label %25

25:                                               ; preds = %55, %24
  %26 = load ptr, ptr %7, align 8, !tbaa !141
  %27 = getelementptr inbounds nuw %struct.AVHWFramesConstraints, ptr %26, i32 0, i32 1
  %28 = load ptr, ptr %27, align 8, !tbaa !144
  %29 = load i32, ptr %10, align 4, !tbaa !15
  %30 = sext i32 %29 to i64
  %31 = getelementptr inbounds i32, ptr %28, i64 %30
  %32 = load i32, ptr %31, align 4, !tbaa !15
  %33 = icmp ne i32 %32, -1
  br i1 %33, label %34, label %58

34:                                               ; preds = %25
  %35 = load ptr, ptr %4, align 8, !tbaa !4
  %36 = getelementptr inbounds nuw %struct.FFHWBaseEncodeContext, ptr %35, i32 0, i32 12
  %37 = load ptr, ptr %36, align 8, !tbaa !146
  %38 = getelementptr inbounds nuw %struct.AVHWFramesContext, ptr %37, i32 0, i32 9
  %39 = load i32, ptr %38, align 8, !tbaa !147
  %40 = load ptr, ptr %7, align 8, !tbaa !141
  %41 = getelementptr inbounds nuw %struct.AVHWFramesConstraints, ptr %40, i32 0, i32 1
  %42 = load ptr, ptr %41, align 8, !tbaa !144
  %43 = load i32, ptr %10, align 4, !tbaa !15
  %44 = sext i32 %43 to i64
  %45 = getelementptr inbounds i32, ptr %42, i64 %44
  %46 = load i32, ptr %45, align 4, !tbaa !15
  %47 = icmp eq i32 %39, %46
  br i1 %47, label %48, label %54

48:                                               ; preds = %34
  %49 = load ptr, ptr %4, align 8, !tbaa !4
  %50 = getelementptr inbounds nuw %struct.FFHWBaseEncodeContext, ptr %49, i32 0, i32 12
  %51 = load ptr, ptr %50, align 8, !tbaa !146
  %52 = getelementptr inbounds nuw %struct.AVHWFramesContext, ptr %51, i32 0, i32 9
  %53 = load i32, ptr %52, align 8, !tbaa !147
  store i32 %53, ptr %8, align 4, !tbaa !15
  br label %58

54:                                               ; preds = %34
  br label %55

55:                                               ; preds = %54
  %56 = load i32, ptr %10, align 4, !tbaa !15
  %57 = add nsw i32 %56, 1
  store i32 %57, ptr %10, align 4, !tbaa !15
  br label %25, !llvm.loop !150

58:                                               ; preds = %48, %25
  %59 = load i32, ptr %8, align 4, !tbaa !15
  %60 = icmp eq i32 %59, -1
  br i1 %60, label %61, label %67

61:                                               ; preds = %58
  %62 = load ptr, ptr %7, align 8, !tbaa !141
  %63 = getelementptr inbounds nuw %struct.AVHWFramesConstraints, ptr %62, i32 0, i32 1
  %64 = load ptr, ptr %63, align 8, !tbaa !144
  %65 = getelementptr inbounds i32, ptr %64, i64 0
  %66 = load i32, ptr %65, align 4, !tbaa !15
  store i32 %66, ptr %8, align 4, !tbaa !15
  br label %67

67:                                               ; preds = %61, %58
  br label %74

68:                                               ; preds = %19
  %69 = load ptr, ptr %4, align 8, !tbaa !4
  %70 = getelementptr inbounds nuw %struct.FFHWBaseEncodeContext, ptr %69, i32 0, i32 12
  %71 = load ptr, ptr %70, align 8, !tbaa !146
  %72 = getelementptr inbounds nuw %struct.AVHWFramesContext, ptr %71, i32 0, i32 9
  %73 = load i32, ptr %72, align 8, !tbaa !147
  store i32 %73, ptr %8, align 4, !tbaa !15
  br label %74

74:                                               ; preds = %68, %67
  %75 = load ptr, ptr %4, align 8, !tbaa !4
  %76 = getelementptr inbounds nuw %struct.FFHWBaseEncodeContext, ptr %75, i32 0, i32 1
  %77 = load ptr, ptr %76, align 8, !tbaa !151
  %78 = load i32, ptr %8, align 4, !tbaa !15
  %79 = call ptr @av_get_pix_fmt_name(i32 noundef %78)
  call void (ptr, i32, ptr, ...) @av_log(ptr noundef %77, i32 noundef 48, ptr noundef @.str.12, ptr noundef %79)
  %80 = load ptr, ptr %4, align 8, !tbaa !4
  %81 = getelementptr inbounds nuw %struct.FFHWBaseEncodeContext, ptr %80, i32 0, i32 5
  %82 = load i32, ptr %81, align 8, !tbaa !152
  %83 = load ptr, ptr %7, align 8, !tbaa !141
  %84 = getelementptr inbounds nuw %struct.AVHWFramesConstraints, ptr %83, i32 0, i32 2
  %85 = load i32, ptr %84, align 8, !tbaa !153
  %86 = icmp slt i32 %82, %85
  br i1 %86, label %111, label %87

87:                                               ; preds = %74
  %88 = load ptr, ptr %4, align 8, !tbaa !4
  %89 = getelementptr inbounds nuw %struct.FFHWBaseEncodeContext, ptr %88, i32 0, i32 6
  %90 = load i32, ptr %89, align 4, !tbaa !154
  %91 = load ptr, ptr %7, align 8, !tbaa !141
  %92 = getelementptr inbounds nuw %struct.AVHWFramesConstraints, ptr %91, i32 0, i32 3
  %93 = load i32, ptr %92, align 4, !tbaa !155
  %94 = icmp slt i32 %90, %93
  br i1 %94, label %111, label %95

95:                                               ; preds = %87
  %96 = load ptr, ptr %4, align 8, !tbaa !4
  %97 = getelementptr inbounds nuw %struct.FFHWBaseEncodeContext, ptr %96, i32 0, i32 5
  %98 = load i32, ptr %97, align 8, !tbaa !152
  %99 = load ptr, ptr %7, align 8, !tbaa !141
  %100 = getelementptr inbounds nuw %struct.AVHWFramesConstraints, ptr %99, i32 0, i32 4
  %101 = load i32, ptr %100, align 8, !tbaa !156
  %102 = icmp sgt i32 %98, %101
  br i1 %102, label %111, label %103

103:                                              ; preds = %95
  %104 = load ptr, ptr %4, align 8, !tbaa !4
  %105 = getelementptr inbounds nuw %struct.FFHWBaseEncodeContext, ptr %104, i32 0, i32 6
  %106 = load i32, ptr %105, align 4, !tbaa !154
  %107 = load ptr, ptr %7, align 8, !tbaa !141
  %108 = getelementptr inbounds nuw %struct.AVHWFramesConstraints, ptr %107, i32 0, i32 5
  %109 = load i32, ptr %108, align 4, !tbaa !157
  %110 = icmp sgt i32 %106, %109
  br i1 %110, label %111, label %133

111:                                              ; preds = %103, %95, %87, %74
  %112 = load ptr, ptr %4, align 8, !tbaa !4
  %113 = getelementptr inbounds nuw %struct.FFHWBaseEncodeContext, ptr %112, i32 0, i32 1
  %114 = load ptr, ptr %113, align 8, !tbaa !151
  %115 = load ptr, ptr %4, align 8, !tbaa !4
  %116 = getelementptr inbounds nuw %struct.FFHWBaseEncodeContext, ptr %115, i32 0, i32 5
  %117 = load i32, ptr %116, align 8, !tbaa !152
  %118 = load ptr, ptr %4, align 8, !tbaa !4
  %119 = getelementptr inbounds nuw %struct.FFHWBaseEncodeContext, ptr %118, i32 0, i32 6
  %120 = load i32, ptr %119, align 4, !tbaa !154
  %121 = load ptr, ptr %7, align 8, !tbaa !141
  %122 = getelementptr inbounds nuw %struct.AVHWFramesConstraints, ptr %121, i32 0, i32 2
  %123 = load i32, ptr %122, align 8, !tbaa !153
  %124 = load ptr, ptr %7, align 8, !tbaa !141
  %125 = getelementptr inbounds nuw %struct.AVHWFramesConstraints, ptr %124, i32 0, i32 4
  %126 = load i32, ptr %125, align 8, !tbaa !156
  %127 = load ptr, ptr %7, align 8, !tbaa !141
  %128 = getelementptr inbounds nuw %struct.AVHWFramesConstraints, ptr %127, i32 0, i32 3
  %129 = load i32, ptr %128, align 4, !tbaa !155
  %130 = load ptr, ptr %7, align 8, !tbaa !141
  %131 = getelementptr inbounds nuw %struct.AVHWFramesConstraints, ptr %130, i32 0, i32 5
  %132 = load i32, ptr %131, align 4, !tbaa !157
  call void (ptr, i32, ptr, ...) @av_log(ptr noundef %114, i32 noundef 16, ptr noundef @.str.13, i32 noundef %117, i32 noundef %120, i32 noundef %123, i32 noundef %126, i32 noundef %129, i32 noundef %132)
  store i32 -22, ptr %9, align 4, !tbaa !15
  br label %136

133:                                              ; preds = %103
  %134 = load i32, ptr %8, align 4, !tbaa !15
  %135 = load ptr, ptr %6, align 8, !tbaa !140
  store i32 %134, ptr %135, align 4, !tbaa !15
  store i32 0, ptr %9, align 4, !tbaa !15
  br label %136

136:                                              ; preds = %133, %111, %18
  call void @av_hwframe_constraints_free(ptr noundef %7)
  %137 = load i32, ptr %9, align 4, !tbaa !15
  call void @llvm.lifetime.end.p0(i64 4, ptr %10) #7
  call void @llvm.lifetime.end.p0(i64 4, ptr %9) #7
  call void @llvm.lifetime.end.p0(i64 4, ptr %8) #7
  call void @llvm.lifetime.end.p0(i64 8, ptr %7) #7
  ret i32 %137
}