; Function Attrs: nounwind uwtable
define range(i32 -22, 1) i32 @ff_hw_base_get_recon_format(ptr noundef readonly captures(none) %0, ptr noundef %1, ptr noundef writeonly captures(none) %2) local_unnamed_addr #1 {
  %4 = alloca ptr, align 8
  call void @llvm.lifetime.start.p0(i64 8, ptr nonnull %4) #8
  %5 = getelementptr inbounds nuw i8, ptr %0, i64 48
  %6 = load ptr, ptr %5, align 8, !tbaa !142
  %7 = tail call ptr @av_hwdevice_get_hwframe_constraints(ptr noundef %6, ptr noundef %1) #8
  store ptr %7, ptr %4, align 8, !tbaa !143
  %.not = icmp eq ptr %7, null
  br i1 %.not, label %50, label %8

8:                                                ; preds = %3
  %9 = getelementptr inbounds nuw i8, ptr %7, i64 8
  %10 = load ptr, ptr %9, align 8, !tbaa !145
  %.not27 = icmp eq ptr %10, null
  br i1 %.not27, label %22, label %.preheader

.preheader:                                       ; preds = %8
  %11 = load i32, ptr %10, align 4, !tbaa !111
  %.not2830 = icmp eq i32 %11, -1
  br i1 %.not2830, label %.loopexit, label %.lr.ph

.lr.ph:                                           ; preds = %.preheader
  %12 = getelementptr inbounds nuw i8, ptr %0, i64 72
  %13 = load ptr, ptr %12, align 8, !tbaa !147
  %14 = getelementptr inbounds nuw i8, ptr %13, i64 64
  %15 = load i32, ptr %14, align 8, !tbaa !148
  br label %19

16:                                               ; preds = %19
  %indvars.iv.next = add nuw nsw i64 %indvars.iv, 1
  %17 = getelementptr inbounds nuw i32, ptr %10, i64 %indvars.iv.next
  %18 = load i32, ptr %17, align 4, !tbaa !111
  %.not28 = icmp eq i32 %18, -1
  br i1 %.not28, label %.loopexit, label %19, !llvm.loop !151

19:                                               ; preds = %.lr.ph, %16
  %indvars.iv = phi i64 [ 0, %.lr.ph ], [ %indvars.iv.next, %16 ]
  %20 = phi i32 [ %11, %.lr.ph ], [ %18, %16 ]
  %21 = icmp eq i32 %15, %20
  br i1 %21, label %.loopexit, label %16

22:                                               ; preds = %8
  %23 = getelementptr inbounds nuw i8, ptr %0, i64 72
  %24 = load ptr, ptr %23, align 8, !tbaa !147
  %25 = getelementptr inbounds nuw i8, ptr %24, i64 64
  %26 = load i32, ptr %25, align 8, !tbaa !148
  br label %.loopexit

.loopexit:                                        ; preds = %19, %16, %.preheader, %22
  %.1 = phi i32 [ %26, %22 ], [ -1, %.preheader ], [ %15, %19 ], [ %11, %16 ]
  %27 = getelementptr inbounds nuw i8, ptr %0, i64 8
  %28 = load ptr, ptr %27, align 8, !tbaa !86
  %29 = tail call ptr @av_get_pix_fmt_name(i32 noundef %.1) #8
  tail call void (ptr, i32, ptr, ...) @av_log(ptr noundef %28, i32 noundef 48, ptr noundef nonnull @.str.12, ptr noundef %29) #8
  %30 = getelementptr inbounds nuw i8, ptr %0, i64 32
  %31 = load i32, ptr %30, align 8, !tbaa !152
  %32 = getelementptr inbounds nuw i8, ptr %7, i64 16
  %33 = load i32, ptr %32, align 8, !tbaa !153
  %34 = icmp slt i32 %31, %33
  %.phi.trans.insert = getelementptr inbounds nuw i8, ptr %0, i64 36
  %.pre = load i32, ptr %.phi.trans.insert, align 4, !tbaa !154
  %.phi.trans.insert33 = getelementptr inbounds nuw i8, ptr %7, i64 20
  %.pre34 = load i32, ptr %.phi.trans.insert33, align 4, !tbaa !155
  %35 = icmp slt i32 %.pre, %.pre34
  %or.cond = select i1 %34, i1 true, i1 %35
  br i1 %or.cond, label %.loopexit._crit_edge, label %36

36:                                               ; preds = %.loopexit
  %37 = getelementptr inbounds nuw i8, ptr %7, i64 24
  %38 = load i32, ptr %37, align 8, !tbaa !156
  %39 = icmp sgt i32 %31, %38
  br i1 %39, label %.loopexit._crit_edge, label %40

40:                                               ; preds = %36
  %41 = getelementptr inbounds nuw i8, ptr %7, i64 28
  %42 = load i32, ptr %41, align 4, !tbaa !157
  %43 = icmp sgt i32 %.pre, %42
  br i1 %43, label %.loopexit._crit_edge, label %49

.loopexit._crit_edge:                             ; preds = %.loopexit, %40, %36
  %44 = load ptr, ptr %27, align 8, !tbaa !86
  %45 = getelementptr inbounds nuw i8, ptr %7, i64 24
  %46 = load i32, ptr %45, align 8, !tbaa !156
  %47 = getelementptr inbounds nuw i8, ptr %7, i64 28
  %48 = load i32, ptr %47, align 4, !tbaa !157
  tail call void (ptr, i32, ptr, ...) @av_log(ptr noundef %44, i32 noundef 16, ptr noundef nonnull @.str.13, i32 noundef %31, i32 noundef %.pre, i32 noundef %33, i32 noundef %46, i32 noundef %.pre34, i32 noundef %48) #8
  br label %50

49:                                               ; preds = %40
  store i32 %.1, ptr %2, align 4, !tbaa !111
  br label %50

50:                                               ; preds = %3, %49, %.loopexit._crit_edge
  %.020 = phi i32 [ -22, %.loopexit._crit_edge ], [ 0, %49 ], [ -12, %3 ]
  call void @av_hwframe_constraints_free(ptr noundef nonnull %4) #8
  call void @llvm.lifetime.end.p0(i64 8, ptr nonnull %4) #8
  ret i32 %.020
}